target datalayout = "e-m:e-p270:32:32-p271:32:32-p272:64:64-i64:64-i128:128-f80:128-n8:16:32:64-S128"
target triple = "x86_64-unknown-linux-gnu"

%"class.google::protobuf::util::MessageDifferencer::MapEntryKeyComparator" = type { %"class.google::protobuf::util::MessageDifferencer::MapKeyComparator", ptr }
%"class.google::protobuf::util::MessageDifferencer::MapKeyComparator" = type { ptr }
%"class.google::protobuf::util::MessageDifferencer" = type { ptr, %"class.google::protobuf::util::DefaultFieldComparator", i32, i32, %"class.absl::lts_20230802::flat_hash_set", %"class.google::protobuf::TextFormat::Parser::UnsetFieldsMetadata", %"class.absl::lts_20230802::flat_hash_set.31", i32, %"class.absl::lts_20230802::flat_hash_map.41", %"class.std::vector.50", %"class.absl::lts_20230802::flat_hash_map.55", %"class.google::protobuf::util::MessageDifferencer::MapEntryKeyComparator", %"class.std::vector.64", %"class.std::vector.69", %"class.absl::lts_20230802::flat_hash_set", %union.anon.71, i32, i8, i8, i8, i8, ptr, %"class.std::function", %"class.google::protobuf::util::MessageDifferencer::UnpackAnyField" }
%"class.google::protobuf::util::DefaultFieldComparator" = type { %"class.google::protobuf::util::SimpleFieldComparator" }
%"class.google::protobuf::util::SimpleFieldComparator" = type { %"class.google::protobuf::util::FieldComparator", i32, i8, i8, %"struct.google::protobuf::util::SimpleFieldComparator::Tolerance", %"class.absl::lts_20230802::flat_hash_map" }
%"class.google::protobuf::util::FieldComparator" = type { ptr }
%"struct.google::protobuf::util::SimpleFieldComparator::Tolerance" = type { double, double }
%"class.absl::lts_20230802::flat_hash_map" = type { %"class.absl::lts_20230802::container_internal::raw_hash_map" }
%"class.absl::lts_20230802::container_internal::raw_hash_map" = type { %"class.absl::lts_20230802::container_internal::raw_hash_set" }
%"class.absl::lts_20230802::container_internal::raw_hash_set" = type { %"class.absl::lts_20230802::container_internal::CompressedTuple" }
%"class.absl::lts_20230802::container_internal::CompressedTuple" = type { %"struct.absl::lts_20230802::container_internal::internal_compressed_tuple::CompressedTupleImpl" }
%"struct.absl::lts_20230802::container_internal::internal_compressed_tuple::CompressedTupleImpl" = type { %"struct.absl::lts_20230802::container_internal::internal_compressed_tuple::Storage" }
%"struct.absl::lts_20230802::container_internal::internal_compressed_tuple::Storage" = type { %"class.absl::lts_20230802::container_internal::CommonFields" }
%"class.absl::lts_20230802::container_internal::CommonFields" = type { ptr, ptr, i64, %"class.absl::lts_20230802::container_internal::CompressedTuple.4" }
%"class.absl::lts_20230802::container_internal::CompressedTuple.4" = type { %"struct.absl::lts_20230802::container_internal::internal_compressed_tuple::CompressedTupleImpl.5" }
%"struct.absl::lts_20230802::container_internal::internal_compressed_tuple::CompressedTupleImpl.5" = type { %"struct.absl::lts_20230802::container_internal::internal_compressed_tuple::Storage.6" }
%"struct.absl::lts_20230802::container_internal::internal_compressed_tuple::Storage.6" = type { i64 }
%"class.google::protobuf::TextFormat::Parser::UnsetFieldsMetadata" = type { %"class.absl::lts_20230802::flat_hash_set.21" }
%"class.absl::lts_20230802::flat_hash_set.21" = type { %"class.absl::lts_20230802::container_internal::raw_hash_set.22" }
%"class.absl::lts_20230802::container_internal::raw_hash_set.22" = type { %"class.absl::lts_20230802::container_internal::CompressedTuple.23" }
%"class.absl::lts_20230802::container_internal::CompressedTuple.23" = type { %"struct.absl::lts_20230802::container_internal::internal_compressed_tuple::CompressedTupleImpl.24" }
%"struct.absl::lts_20230802::container_internal::internal_compressed_tuple::CompressedTupleImpl.24" = type { %"struct.absl::lts_20230802::container_internal::internal_compressed_tuple::Storage" }
%"class.absl::lts_20230802::flat_hash_set.31" = type { %"class.absl::lts_20230802::container_internal::raw_hash_set.32" }
%"class.absl::lts_20230802::container_internal::raw_hash_set.32" = type { %"class.absl::lts_20230802::container_internal::CompressedTuple.33" }
%"class.absl::lts_20230802::container_internal::CompressedTuple.33" = type { %"struct.absl::lts_20230802::container_internal::internal_compressed_tuple::CompressedTupleImpl.34" }
%"struct.absl::lts_20230802::container_internal::internal_compressed_tuple::CompressedTupleImpl.34" = type { %"struct.absl::lts_20230802::container_internal::internal_compressed_tuple::Storage" }
%"class.absl::lts_20230802::flat_hash_map.41" = type { %"class.absl::lts_20230802::container_internal::raw_hash_map.42" }
%"class.absl::lts_20230802::container_internal::raw_hash_map.42" = type { %"class.absl::lts_20230802::container_internal::raw_hash_set.43" }
%"class.absl::lts_20230802::container_internal::raw_hash_set.43" = type { %"class.absl::lts_20230802::container_internal::CompressedTuple.44" }
%"class.absl::lts_20230802::container_internal::CompressedTuple.44" = type { %"struct.absl::lts_20230802::container_internal::internal_compressed_tuple::CompressedTupleImpl.45" }
%"struct.absl::lts_20230802::container_internal::internal_compressed_tuple::CompressedTupleImpl.45" = type { %"struct.absl::lts_20230802::container_internal::internal_compressed_tuple::Storage" }
%"class.std::vector.50" = type { %"struct.std::_Vector_base.51" }
%"struct.std::_Vector_base.51" = type { %"struct.std::_Vector_base<google::protobuf::util::MessageDifferencer::MapKeyComparator *, std::allocator<google::protobuf::util::MessageDifferencer::MapKeyComparator *>>::_Vector_impl" }
%"struct.std::_Vector_base<google::protobuf::util::MessageDifferencer::MapKeyComparator *, std::allocator<google::protobuf::util::MessageDifferencer::MapKeyComparator *>>::_Vector_impl" = type { %"struct.std::_Vector_base<google::protobuf::util::MessageDifferencer::MapKeyComparator *, std::allocator<google::protobuf::util::MessageDifferencer::MapKeyComparator *>>::_Vector_impl_data" }
%"struct.std::_Vector_base<google::protobuf::util::MessageDifferencer::MapKeyComparator *, std::allocator<google::protobuf::util::MessageDifferencer::MapKeyComparator *>>::_Vector_impl_data" = type { ptr, ptr, ptr }
%"class.absl::lts_20230802::flat_hash_map.55" = type { %"class.absl::lts_20230802::container_internal::raw_hash_map.56" }
%"class.absl::lts_20230802::container_internal::raw_hash_map.56" = type { %"class.absl::lts_20230802::container_internal::raw_hash_set.57" }
%"class.absl::lts_20230802::container_internal::raw_hash_set.57" = type { %"class.absl::lts_20230802::container_internal::CompressedTuple.58" }
%"class.absl::lts_20230802::container_internal::CompressedTuple.58" = type { %"struct.absl::lts_20230802::container_internal::internal_compressed_tuple::CompressedTupleImpl.59" }
%"struct.absl::lts_20230802::container_internal::internal_compressed_tuple::CompressedTupleImpl.59" = type { %"struct.absl::lts_20230802::container_internal::internal_compressed_tuple::Storage" }
%"class.std::vector.64" = type { %"struct.std::_Vector_base.65" }
%"struct.std::_Vector_base.65" = type { %"struct.std::_Vector_base<std::unique_ptr<google::protobuf::util::MessageDifferencer::IgnoreCriteria>, std::allocator<std::unique_ptr<google::protobuf::util::MessageDifferencer::IgnoreCriteria>>>::_Vector_impl" }
%"struct.std::_Vector_base<std::unique_ptr<google::protobuf::util::MessageDifferencer::IgnoreCriteria>, std::allocator<std::unique_ptr<google::protobuf::util::MessageDifferencer::IgnoreCriteria>>>::_Vector_impl" = type { %"struct.std::_Vector_base<std::unique_ptr<google::protobuf::util::MessageDifferencer::IgnoreCriteria>, std::allocator<std::unique_ptr<google::protobuf::util::MessageDifferencer::IgnoreCriteria>>>::_Vector_impl_data" }
%"struct.std::_Vector_base<std::unique_ptr<google::protobuf::util::MessageDifferencer::IgnoreCriteria>, std::allocator<std::unique_ptr<google::protobuf::util::MessageDifferencer::IgnoreCriteria>>>::_Vector_impl_data" = type { ptr, ptr, ptr }
%"class.std::vector.69" = type { %"struct.std::_Vector_base.70" }
%"struct.std::_Vector_base.70" = type { %"struct.std::_Vector_base<const google::protobuf::FieldDescriptor *, std::allocator<const google::protobuf::FieldDescriptor *>>::_Vector_impl" }
%"struct.std::_Vector_base<const google::protobuf::FieldDescriptor *, std::allocator<const google::protobuf::FieldDescriptor *>>::_Vector_impl" = type { %"struct.std::_Vector_base<const google::protobuf::FieldDescriptor *, std::allocator<const google::protobuf::FieldDescriptor *>>::_Vector_impl_data" }
%"struct.std::_Vector_base<const google::protobuf::FieldDescriptor *, std::allocator<const google::protobuf::FieldDescriptor *>>::_Vector_impl_data" = type { ptr, ptr, ptr }
%"class.absl::lts_20230802::flat_hash_set" = type { %"class.absl::lts_20230802::container_internal::raw_hash_set.14" }
%"class.absl::lts_20230802::container_internal::raw_hash_set.14" = type { %"class.absl::lts_20230802::container_internal::CompressedTuple.15" }
%"class.absl::lts_20230802::container_internal::CompressedTuple.15" = type { %"struct.absl::lts_20230802::container_internal::internal_compressed_tuple::CompressedTupleImpl.16" }
%"struct.absl::lts_20230802::container_internal::internal_compressed_tuple::CompressedTupleImpl.16" = type { %"struct.absl::lts_20230802::container_internal::internal_compressed_tuple::Storage" }
%union.anon.71 = type { ptr }
%"class.std::function" = type { %"class.std::_Function_base", ptr }
%"class.std::_Function_base" = type { %"union.std::_Any_data", ptr }
%"union.std::_Any_data" = type { %"union.std::_Nocopy_types" }
%"union.std::_Nocopy_types" = type { { i64, i64 } }
%"class.google::protobuf::util::MessageDifferencer::UnpackAnyField" = type { %"class.std::unique_ptr" }
%"class.std::unique_ptr" = type { %"struct.std::__uniq_ptr_data" }
%"struct.std::__uniq_ptr_data" = type { %"class.std::__uniq_ptr_impl" }
%"class.std::__uniq_ptr_impl" = type { %"class.std::tuple" }
%"class.std::tuple" = type { %"struct.std::_Tuple_impl" }
%"struct.std::_Tuple_impl" = type { %"struct.std::_Head_base.73" }
%"struct.std::_Head_base.73" = type { ptr }

@_ZN6google8protobuf4util18MessageDifferencerC1Ev = unnamed_addr alias void (ptr), ptr @_ZN6google8protobuf4util18MessageDifferencerC2Ev
@_ZN6google8protobuf4util18MessageDifferencerD1Ev = unnamed_addr alias void (ptr), ptr @_ZN6google8protobuf4util18MessageDifferencerD2Ev

; Function Attrs: mustprogress nounwind uwtable
define void @_ZN6google8protobuf4util18MessageDifferencer28set_message_field_comparisonENS2_22MessageFieldComparisonE(ptr noundef nonnull align 8 dereferenceable(432) %this, i32 noundef %comparison) #5 align 2 {
entry:
  %this.addr = alloca ptr, align 8
  %comparison.addr = alloca i32, align 4
  store ptr %this, ptr %this.addr, align 8
  store i32 %comparison, ptr %comparison.addr, align 4
  %this1 = load ptr, ptr %this.addr, align 8
  %0 = load i32, ptr %comparison.addr, align 4
  %message_field_comparison_ = getelementptr inbounds %"class.google::protobuf::util::MessageDifferencer", ptr %this1, i32 0, i32 2
  store i32 %0, ptr %message_field_comparison_, align 8
  ret void
}

; Function Attrs: mustprogress uwtable
define noundef zeroext i1 @_ZN6google8protobuf4util18MessageDifferencer10EquivalentERKNS0_7MessageES5_(ptr noundef nonnull align 8 dereferenceable(16) %message1, ptr noundef nonnull align 8 dereferenceable(16) %message2) #4 align 2 personality ptr @__gxx_personality_v0 {
entry:
  %message1.addr = alloca ptr, align 8
  %message2.addr = alloca ptr, align 8
  %differencer = alloca %"class.google::protobuf::util::MessageDifferencer", align 8
  %exn.slot = alloca ptr, align 8
  %ehselector.slot = alloca i32, align 4
  store ptr %message1, ptr %message1.addr, align 8
  store ptr %message2, ptr %message2.addr, align 8
  call void @_ZN6google8protobuf4util18MessageDifferencerC1Ev(ptr noundef nonnull align 8 dereferenceable(432) %differencer)
  invoke void @_ZN6google8protobuf4util18MessageDifferencer28set_message_field_comparisonENS2_22MessageFieldComparisonE(ptr noundef nonnull align 8 dereferenceable(432) %differencer, i32 noundef 1)
          to label %invoke.cont unwind label %lpad

invoke.cont:                                      ; preds = %entry
  %0 = load ptr, ptr %message1.addr, align 8
  %1 = load ptr, ptr %message2.addr, align 8
  %call = invoke noundef zeroext i1 @_ZN6google8protobuf4util18MessageDifferencer7CompareERKNS0_7MessageES5_(ptr noundef nonnull align 8 dereferenceable(432) %differencer, ptr noundef nonnull align 8 dereferenceable(16) %0, ptr noundef nonnull align 8 dereferenceable(16) %1)
          to label %invoke.cont1 unwind label %lpad

invoke.cont1:                                     ; preds = %invoke.cont
  call void @_ZN6google8protobuf4util18MessageDifferencerD1Ev(ptr noundef nonnull align 8 dereferenceable(432) %differencer) #3
  ret i1 %call

lpad:                                             ; preds = %invoke.cont, %entry
  %2 = landingpad { ptr, i32 }
          cleanup
  %3 = extractvalue { ptr, i32 } %2, 0
  store ptr %3, ptr %exn.slot, align 8
  %4 = extractvalue { ptr, i32 } %2, 1
  store i32 %4, ptr %ehselector.slot, align 4
  call void @_ZN6google8protobuf4util18MessageDifferencerD1Ev(ptr noundef nonnull align 8 dereferenceable(432) %differencer) #3
  br label %eh.resume

eh.resume:                                        ; preds = %lpad
  %exn = load ptr, ptr %exn.slot, align 8
  %sel = load i32, ptr %ehselector.slot, align 4
  %lpad.val = insertvalue { ptr, i32 } poison, ptr %exn, 0
  %lpad.val2 = insertvalue { ptr, i32 } %lpad.val, i32 %sel, 1
  resume { ptr, i32 } %lpad.val2
}