; Function Attrs: mustprogress uwtable
define noundef zeroext i1 @_ZN6google8protobuf4util18MessageDifferencer10EquivalentERKNS0_7MessageES5_(ptr noundef nonnull align 8 dereferenceable(16) %message1, ptr noundef nonnull align 8 dereferenceable(16) %message2) local_unnamed_addr #3 align 2 personality ptr @__gxx_personality_v0 {
entry:
  %differencer = alloca %"class.google::protobuf::util::MessageDifferencer", align 8
  call void @_ZN6google8protobuf4util18MessageDifferencerC1Ev(ptr noundef nonnull align 8 dereferenceable(432) %differencer)
  %message_field_comparison_.i = getelementptr inbounds i8, ptr %differencer, i64 72
  store i32 1, ptr %message_field_comparison_.i, align 8
  %call = invoke noundef zeroext i1 @_ZN6google8protobuf4util18MessageDifferencer7CompareERKNS0_7MessageES5_(ptr noundef nonnull align 8 dereferenceable(432) %differencer, ptr noundef nonnull align 8 dereferenceable(16) %message1, ptr noundef nonnull align 8 dereferenceable(16) %message2)
          to label %invoke.cont1 unwind label %lpad

invoke.cont1:                                     ; preds = %entry
  call void @_ZN6google8protobuf4util18MessageDifferencerD1Ev(ptr noundef nonnull align 8 dereferenceable(432) %differencer) #34
  ret i1 %call

lpad:                                             ; preds = %entry
  %0 = landingpad { ptr, i32 }
          cleanup
  call void @_ZN6google8protobuf4util18MessageDifferencerD1Ev(ptr noundef nonnull align 8 dereferenceable(432) %differencer) #34
  resume { ptr, i32 } %0
}